target datalayout = "e-m:e-p270:32:32-p271:32:32-p272:64:64-i64:64-i128:128-f80:128-n8:16:32:64-S128"
target triple = "x86_64-pc-linux-gnu"

%struct.quic_stream_map_st = type { ptr, %struct.quic_stream_list_node_st, %struct.quic_stream_list_node_st, %struct.quic_stream_list_node_st, i64, i64, i64, i64, i64, ptr, ptr, ptr, ptr, ptr, i32 }
%struct.quic_stream_list_node_st = type { ptr, ptr }

; Function Attrs: inlinehint nounwind uwtable
define internal ptr @lh_QUIC_STREAM_new(ptr noundef %0, ptr noundef %1) #1 {
  %3 = alloca ptr, align 8
  %4 = alloca ptr, align 8
  store ptr %0, ptr %3, align 8, !tbaa !8
  store ptr %1, ptr %4, align 8, !tbaa !8
  %5 = load ptr, ptr %3, align 8, !tbaa !8
  %6 = load ptr, ptr %4, align 8, !tbaa !8
  %7 = call ptr @OPENSSL_LH_new(ptr noundef %5, ptr noundef %6)
  %8 = call ptr @OPENSSL_LH_set_thunks(ptr noundef %7, ptr noundef @lh_QUIC_STREAM_hfn_thunk, ptr noundef @lh_QUIC_STREAM_cfn_thunk, ptr noundef @lh_QUIC_STREAM_doall_thunk, ptr noundef @lh_QUIC_STREAM_doall_arg_thunk)
  ret ptr %8
}

; Function Attrs: nounwind uwtable
define i32 @ossl_quic_stream_map_init(ptr noundef %0, ptr noundef %1, ptr noundef %2, ptr noundef %3, ptr noundef %4, i32 noundef %5) #0 {
  %7 = alloca ptr, align 8
  %8 = alloca ptr, align 8
  %9 = alloca ptr, align 8
  %10 = alloca ptr, align 8
  %11 = alloca ptr, align 8
  %12 = alloca i32, align 4
  store ptr %0, ptr %7, align 8, !tbaa !3
  store ptr %1, ptr %8, align 8, !tbaa !8
  store ptr %2, ptr %9, align 8, !tbaa !8
  store ptr %3, ptr %10, align 8, !tbaa !9
  store ptr %4, ptr %11, align 8, !tbaa !9
  store i32 %5, ptr %12, align 4, !tbaa !11
  %13 = call ptr @lh_QUIC_STREAM_new(ptr noundef @hash_stream, ptr noundef @cmp_stream)
  %14 = load ptr, ptr %7, align 8, !tbaa !3
  %15 = getelementptr inbounds nuw %struct.quic_stream_map_st, ptr %14, i32 0, i32 0
  store ptr %13, ptr %15, align 8, !tbaa !13
  %16 = load ptr, ptr %7, align 8, !tbaa !3
  %17 = getelementptr inbounds nuw %struct.quic_stream_map_st, ptr %16, i32 0, i32 1
  %18 = load ptr, ptr %7, align 8, !tbaa !3
  %19 = getelementptr inbounds nuw %struct.quic_stream_map_st, ptr %18, i32 0, i32 1
  %20 = getelementptr inbounds nuw %struct.quic_stream_list_node_st, ptr %19, i32 0, i32 1
  store ptr %17, ptr %20, align 8, !tbaa !20
  %21 = load ptr, ptr %7, align 8, !tbaa !3
  %22 = getelementptr inbounds nuw %struct.quic_stream_map_st, ptr %21, i32 0, i32 1
  %23 = getelementptr inbounds nuw %struct.quic_stream_list_node_st, ptr %22, i32 0, i32 0
  store ptr %17, ptr %23, align 8, !tbaa !21
  %24 = load ptr, ptr %7, align 8, !tbaa !3
  %25 = getelementptr inbounds nuw %struct.quic_stream_map_st, ptr %24, i32 0, i32 2
  %26 = load ptr, ptr %7, align 8, !tbaa !3
  %27 = getelementptr inbounds nuw %struct.quic_stream_map_st, ptr %26, i32 0, i32 2
  %28 = getelementptr inbounds nuw %struct.quic_stream_list_node_st, ptr %27, i32 0, i32 1
  store ptr %25, ptr %28, align 8, !tbaa !22
  %29 = load ptr, ptr %7, align 8, !tbaa !3
  %30 = getelementptr inbounds nuw %struct.quic_stream_map_st, ptr %29, i32 0, i32 2
  %31 = getelementptr inbounds nuw %struct.quic_stream_list_node_st, ptr %30, i32 0, i32 0
  store ptr %25, ptr %31, align 8, !tbaa !23
  %32 = load ptr, ptr %7, align 8, !tbaa !3
  %33 = getelementptr inbounds nuw %struct.quic_stream_map_st, ptr %32, i32 0, i32 3
  %34 = load ptr, ptr %7, align 8, !tbaa !3
  %35 = getelementptr inbounds nuw %struct.quic_stream_map_st, ptr %34, i32 0, i32 3
  %36 = getelementptr inbounds nuw %struct.quic_stream_list_node_st, ptr %35, i32 0, i32 1
  store ptr %33, ptr %36, align 8, !tbaa !24
  %37 = load ptr, ptr %7, align 8, !tbaa !3
  %38 = getelementptr inbounds nuw %struct.quic_stream_map_st, ptr %37, i32 0, i32 3
  %39 = getelementptr inbounds nuw %struct.quic_stream_list_node_st, ptr %38, i32 0, i32 0
  store ptr %33, ptr %39, align 8, !tbaa !25
  %40 = load ptr, ptr %7, align 8, !tbaa !3
  %41 = getelementptr inbounds nuw %struct.quic_stream_map_st, ptr %40, i32 0, i32 4
  store i64 1, ptr %41, align 8, !tbaa !26
  %42 = load ptr, ptr %7, align 8, !tbaa !3
  %43 = getelementptr inbounds nuw %struct.quic_stream_map_st, ptr %42, i32 0, i32 5
  store i64 0, ptr %43, align 8, !tbaa !27
  %44 = load ptr, ptr %7, align 8, !tbaa !3
  %45 = getelementptr inbounds nuw %struct.quic_stream_map_st, ptr %44, i32 0, i32 9
  store ptr null, ptr %45, align 8, !tbaa !28
  %46 = load ptr, ptr %7, align 8, !tbaa !3
  %47 = getelementptr inbounds nuw %struct.quic_stream_map_st, ptr %46, i32 0, i32 6
  store i64 0, ptr %47, align 8, !tbaa !29
  %48 = load ptr, ptr %7, align 8, !tbaa !3
  %49 = getelementptr inbounds nuw %struct.quic_stream_map_st, ptr %48, i32 0, i32 7
  store i64 0, ptr %49, align 8, !tbaa !30
  %50 = load ptr, ptr %7, align 8, !tbaa !3
  %51 = getelementptr inbounds nuw %struct.quic_stream_map_st, ptr %50, i32 0, i32 8
  store i64 0, ptr %51, align 8, !tbaa !31
  %52 = load ptr, ptr %8, align 8, !tbaa !8
  %53 = load ptr, ptr %7, align 8, !tbaa !3
  %54 = getelementptr inbounds nuw %struct.quic_stream_map_st, ptr %53, i32 0, i32 10
  store ptr %52, ptr %54, align 8, !tbaa !32
  %55 = load ptr, ptr %9, align 8, !tbaa !8
  %56 = load ptr, ptr %7, align 8, !tbaa !3
  %57 = getelementptr inbounds nuw %struct.quic_stream_map_st, ptr %56, i32 0, i32 11
  store ptr %55, ptr %57, align 8, !tbaa !33
  %58 = load ptr, ptr %10, align 8, !tbaa !9
  %59 = load ptr, ptr %7, align 8, !tbaa !3
  %60 = getelementptr inbounds nuw %struct.quic_stream_map_st, ptr %59, i32 0, i32 12
  store ptr %58, ptr %60, align 8, !tbaa !34
  %61 = load ptr, ptr %11, align 8, !tbaa !9
  %62 = load ptr, ptr %7, align 8, !tbaa !3
  %63 = getelementptr inbounds nuw %struct.quic_stream_map_st, ptr %62, i32 0, i32 13
  store ptr %61, ptr %63, align 8, !tbaa !35
  %64 = load i32, ptr %12, align 4, !tbaa !11
  %65 = load ptr, ptr %7, align 8, !tbaa !3
  %66 = getelementptr inbounds nuw %struct.quic_stream_map_st, ptr %65, i32 0, i32 14
  store i32 %64, ptr %66, align 8, !tbaa !36
  ret i32 1
}