; Function Attrs: nounwind uwtable
define noundef i32 @ossl_quic_stream_map_init(ptr noundef initializes((0, 8)) %0, ptr noundef %1, ptr noundef %2, ptr noundef %3, ptr noundef %4, i32 noundef %5) local_unnamed_addr #0 {
  %7 = tail call ptr @OPENSSL_LH_new(ptr noundef nonnull @hash_stream, ptr noundef nonnull @cmp_stream) #13
  %8 = tail call ptr @OPENSSL_LH_set_thunks(ptr noundef %7, ptr noundef nonnull @lh_QUIC_STREAM_hfn_thunk, ptr noundef nonnull @lh_QUIC_STREAM_cfn_thunk, ptr noundef nonnull @lh_QUIC_STREAM_doall_thunk, ptr noundef nonnull @lh_QUIC_STREAM_doall_arg_thunk) #13
  store ptr %8, ptr %0, align 8, !tbaa !3
  %9 = getelementptr inbounds nuw i8, ptr %0, i64 8
  %10 = getelementptr inbounds nuw i8, ptr %0, i64 16
  store ptr %9, ptr %10, align 8, !tbaa !15
  store ptr %9, ptr %9, align 8, !tbaa !16
  %11 = getelementptr inbounds nuw i8, ptr %0, i64 24
  %12 = getelementptr inbounds nuw i8, ptr %0, i64 32
  store ptr %11, ptr %12, align 8, !tbaa !17
  store ptr %11, ptr %11, align 8, !tbaa !18
  %13 = getelementptr inbounds nuw i8, ptr %0, i64 40
  %14 = getelementptr inbounds nuw i8, ptr %0, i64 48
  store ptr %13, ptr %14, align 8, !tbaa !19
  store ptr %13, ptr %13, align 8, !tbaa !20
  %15 = getelementptr inbounds nuw i8, ptr %0, i64 56
  store i64 1, ptr %15, align 8, !tbaa !21
  %16 = getelementptr inbounds nuw i8, ptr %0, i64 64
  %17 = getelementptr inbounds nuw i8, ptr %0, i64 104
  tail call void @llvm.memset.p0.i64(ptr noundef nonnull align 8 dereferenceable(40) %16, i8 0, i64 40, i1 false)
  store ptr %1, ptr %17, align 8, !tbaa !22
  %18 = getelementptr inbounds nuw i8, ptr %0, i64 112
  store ptr %2, ptr %18, align 8, !tbaa !23
  %19 = getelementptr inbounds nuw i8, ptr %0, i64 120
  store ptr %3, ptr %19, align 8, !tbaa !24
  %20 = getelementptr inbounds nuw i8, ptr %0, i64 128
  store ptr %4, ptr %20, align 8, !tbaa !25
  %21 = getelementptr inbounds nuw i8, ptr %0, i64 136
  store i32 %5, ptr %21, align 8, !tbaa !26
  ret i32 1
}